Certificate:
    Data:
        Version: 3 (0x2)
        Serial Number: 7 (0x7)
    Signature Algorithm: sha256WithRSAEncryption
        Issuer: CN=etcd-signer@1546413334
        Validity
            Not Before: Jan  2 07:16:52 2019 GMT
            Not After : Jan  1 07:16:52 2024 GMT
        Subject: CN=master1.sonic.com
        Subject Public Key Info:
            Public Key Algorithm: rsaEncryption
                Public-Key: (2048 bit)
                Modulus:
                    00:df:53:a0:5d:23:b5:ad:aa:92:d1:c0:13:cc:ff:
                    c7:01:8a:66:ee:9f:c0:d0:c1:98:fd:6b:be:9d:2e:
                    85:1b:51:6d:a1:ee:b1:d3:63:02:0e:5f:36:5c:f1:
                    09:a2:bb:84:77:49:fc:8e:5f:1c:bb:65:fb:ac:b8:
                    c8:80:af:a6:12:97:76:ff:c0:72:cc:63:81:86:cd:
                    9f:d0:06:cf:6a:fe:e7:10:95:17:37:57:e9:2e:8a:
                    28:9d:10:75:f6:1a:37:12:86:57:6b:8f:9d:3d:cc:
                    7d:0d:f1:04:5b:4e:fc:43:65:07:a0:55:12:7e:16:
                    ce:5b:5b:5a:b0:74:a7:25:2a:90:e1:00:57:46:ac:
                    ad:81:ce:c6:35:63:64:67:ae:f9:d2:a9:a8:16:09:
                    df:3f:a1:5e:0f:00:18:df:c5:2f:27:f2:0d:58:64:
                    9f:fa:b0:18:06:e7:33:41:56:29:07:16:1a:fd:a9:
                    eb:d7:b5:ce:2a:43:c2:82:44:f6:9f:e3:b5:87:58:
                    30:47:a8:fb:6f:9d:26:01:8d:25:0c:58:6a:91:2c:
                    e6:5c:09:cc:b7:19:d9:38:52:9f:70:15:b9:57:1d:
                    4e:4a:6d:94:47:13:15:66:2a:24:3b:75:41:66:14:
                    0e:c0:bc:61:67:77:ba:e9:dc:1c:59:74:4a:70:01:
                    af:43
                Exponent: 65537 (0x10001)
        X509v3 extensions:
            X509v3 Authority Key Identifier: 
                keyid:5A:1F:29:FE:E8:AA:70:26:C5:87:8D:4D:9C:4A:05:C6:63:66:4D:41
                DirName:/CN=etcd-signer@1546413334
                serial:FC:2B:AF:09:42:FA:19:91

            X509v3 Basic Constraints: critical
                CA:FALSE
            X509v3 Extended Key Usage: 
                TLS Web Client Authentication
            X509v3 Key Usage: 
                Digital Signature, Key Encipherment
            X509v3 Subject Key Identifier: 
                F7:71:7A:17:53:9C:02:76:D6:94:2E:7A:0E:8A:21:9D:25:0D:C6:D4
            X509v3 Subject Alternative Name: 
                IP Address:10.0.20.2, DNS:master1.sonic.com
    Signature Algorithm: sha256WithRSAEncryption
         7a:a7:03:b8:8e:9a:53:ba:ce:80:23:30:fb:82:50:83:de:a2:
         47:dc:c9:ea:52:81:cb:01:45:c8:21:f6:35:91:c9:af:69:a1:
         26:b4:47:a0:87:3e:a6:1a:31:09:98:53:bf:74:98:97:36:02:
         61:df:e7:cb:10:80:27:a2:17:3c:a9:c9:1c:ce:70:b6:43:99:
         83:52:4c:b7:80:5b:ec:cb:34:d7:f3:dc:60:cb:6d:57:42:e5:
         7c:ad:a4:8c:5f:55:55:64:fc:6d:b2:58:46:08:90:5f:10:62:
         dc:b8:39:c1:d5:6a:da:0e:34:a1:64:91:8b:2c:c3:4e:96:c9:
         be:cf:77:38:3a:e9:8a:57:f5:f7:fa:96:84:44:1d:f5:05:12:
         d4:b2:68:13:ee:1a:b6:fd:32:47:44:a3:25:c9:ba:5d:33:c9:
         94:6f:e8:c8:8f:90:09:3b:2b:63:9f:7d:8f:c8:1b:a7:73:17:
         59:17:58:cf:4b:fe:44:3d:41:6f:6d:7c:cc:38:fa:0c:c3:7b:
         0b:5c:43:6f:48:54:cc:72:cf:67:d1:81:33:fc:b0:5c:01:0b:
         74:c3:cf:d6:8a:29:7e:00:56:77:8a:5f:4c:38:22:cd:aa:ad:
         5e:e9:03:19:28:fa:0d:4e:08:59:5b:e1:e9:62:31:6b:a9:f3:
         eb:d5:ba:a3:2c:23:44:a4:65:f9:3b:6d:ca:03:4b:44:59:c7:
         f0:2c:bd:fe:c0:ad:e7:26:ef:94:0d:85:16:38:5e:86:82:de:
         e6:44:1c:b6:b5:17:51:bb:61:22:e3:be:47:f1:6a:a5:b5:a2:
         61:28:a4:98:85:ee:3a:9b:58:d7:33:86:6e:a1:a7:ef:a4:c6:
         f2:bd:1a:ef:fc:1c:f6:57:11:a8:f1:96:59:5c:4d:90:76:c2:
         53:83:d3:c0:24:b0:30:21:be:4a:26:0b:c8:a4:bd:e7:d1:4c:
         a1:09:80:54:bf:63:25:c8:3d:66:d4:26:4b:15:68:6a:47:03:
         fd:f1:57:5b:94:85:50:e5:90:b9:b2:85:5d:34:62:a7:b8:61:
         7b:1f:e9:11:37:30:1f:03:42:9d:9e:e3:c7:a4:19:1a:8f:54:
         20:00:b9:dd:be:6c:62:8a:9b:82:b2:df:d2:6a:6c:28:e5:ba:
         af:b9:e0:f4:46:fb:38:04:60:31:2b:27:04:0f:2d:56:4d:10:
         43:ac:30:15:81:a8:5f:35:83:f4:db:48:56:da:72:77:2d:c9:
         a8:11:d7:32:95:65:86:c5:20:f4:c6:d2:ae:bf:62:86:1d:3f:
         b1:12:66:a7:37:0c:54:4e:0e:a8:4f:d5:29:49:19:9d:0c:b7:
         f1:03:7d:dd:29:67:f0:34
-----BEGIN CERTIFICATE-----
MIIEgjCCAmqgAwIBAgIBBzANBgkqhkiG9w0BAQsFADAhMR8wHQYDVQQDDBZldGNk
LXNpZ25lckAxNTQ2NDEzMzM0MB4XDTE5MDEwMjA3MTY1MloXDTI0MDEwMTA3MTY1
MlowHDEaMBgGA1UEAwwRbWFzdGVyMS5zb25pYy5jb20wggEiMA0GCSqGSIb3DQEB
AQUAA4IBDwAwggEKAoIBAQDfU6BdI7WtqpLRwBPM/8cBimbun8DQwZj9a76dLoUb
UW2h7rHTYwIOXzZc8Qmiu4R3SfyOXxy7ZfusuMiAr6YSl3b/wHLMY4GGzZ/QBs9q
/ucQlRc3V+kuiiidEHX2GjcShldrj509zH0N8QRbTvxDZQegVRJ+Fs5bW1qwdKcl
KpDhAFdGrK2BzsY1Y2RnrvnSqagWCd8/oV4PABjfxS8n8g1YZJ/6sBgG5zNBVikH
Fhr9qevXtc4qQ8KCRPaf47WHWDBHqPtvnSYBjSUMWGqRLOZcCcy3Gdk4Up9wFblX
HU5KbZRHExVmKiQ7dUFmFA7AvGFnd7rp3BxZdEpwAa9DAgMBAAGjgckwgcYwUQYD
VR0jBEowSIAUWh8p/uiqcCbFh41NnEoFxmNmTUGhJaQjMCExHzAdBgNVBAMMFmV0
Y2Qtc2lnbmVyQDE1NDY0MTMzMzSCCQD8K68JQvoZkTAMBgNVHRMBAf8EAjAAMBMG
A1UdJQQMMAoGCCsGAQUFBwMCMAsGA1UdDwQEAwIFoDAdBgNVHQ4EFgQU93F6F1Oc
AnbWlC56DoohnSUNxtQwIgYDVR0RBBswGYcECgAUAoIRbWFzdGVyMS5zb25pYy5j
b20wDQYJKoZIhvcNAQELBQADggIBAHqnA7iOmlO6zoAjMPuCUIPeokfcyepSgcsB
Rcgh9jWRya9poSa0R6CHPqYaMQmYU790mJc2AmHf58sQgCeiFzypyRzOcLZDmYNS
TLeAW+zLNNfz3GDLbVdC5XytpIxfVVVk/G2yWEYIkF8QYty4OcHVatoONKFkkYss
w06Wyb7Pdzg66YpX9ff6loREHfUFEtSyaBPuGrb9MkdEoyXJul0zyZRv6MiPkAk7
K2OffY/IG6dzF1kXWM9L/kQ9QW9tfMw4+gzDewtcQ29IVMxyz2fRgTP8sFwBC3TD
z9aKKX4AVneKX0w4Is2qrV7pAxko+g1OCFlb4eliMWup8+vVuqMsI0SkZfk7bcoD
S0RZx/Asvf7Arecm75QNhRY4XoaC3uZEHLa1F1G7YSLjvkfxaqW1omEopJiF7jqb
WNczhm6hp++kxvK9Gu/8HPZXEajxlllcTZB2wlOD08AksDAhvkomC8ikvefRTKEJ
gFS/YyXIPWbUJksVaGpHA/3xV1uUhVDlkLmyhV00Yqe4YXsf6RE3MB8DQp2e48ek
GRqPVCAAud2+bGKKm4Ky39JqbCjluq+54PRG+zgEYDErJwQPLVZNEEOsMBWBqF81
g/TbSFbacnctyagR1zKVZYbFIPTG0q6/YoYdP7ESZqc3DFRODqhP1SlJGZ0Mt/ED
fd0pZ/A0
-----END CERTIFICATE-----
