Certificate:
    Data:
        Version: 3 (0x2)
        Serial Number: 9 (0x9)
    Signature Algorithm: sha256WithRSAEncryption
        Issuer: CN=etcd-signer@1573108831
        Validity
            Not Before: Nov  7 06:41:43 2019 GMT
            Not After : Nov  5 06:41:43 2024 GMT
        Subject: CN=okd-calico03.sonic.com
        Subject Public Key Info:
            Public Key Algorithm: rsaEncryption
                Public-Key: (2048 bit)
                Modulus:
                    00:9f:ea:f5:57:cf:1b:bc:1c:55:47:55:1c:a1:54:
                    92:d8:25:73:cd:b2:69:d9:1c:3c:6b:3b:01:e6:e4:
                    7a:4f:52:b8:29:91:1d:ee:da:00:10:a9:49:39:1f:
                    18:83:87:95:e9:1c:c8:b5:d9:38:e8:98:30:9d:94:
                    32:e5:c8:18:f0:be:d4:e1:6c:60:39:34:6a:2a:bf:
                    be:d8:5c:26:9e:e9:e3:24:59:b5:51:4a:c5:72:9f:
                    33:9d:2f:18:f3:ab:61:b2:40:90:d1:79:b4:89:8b:
                    56:18:a4:85:a7:c7:e0:17:ec:7d:31:59:19:65:62:
                    5b:c3:3b:e0:2c:be:6b:82:f5:82:35:00:58:f1:a7:
                    c8:5d:26:2d:4c:b0:7f:97:25:f8:d5:6c:ad:6b:eb:
                    ac:47:41:0b:a3:b3:ad:3e:cf:92:b2:47:03:5d:59:
                    b8:72:d5:02:b7:ee:13:0b:e8:ff:7b:3f:89:4f:1f:
                    f4:97:1c:9f:4e:eb:85:d8:0d:3a:bb:6f:45:90:cb:
                    e4:73:1b:5d:45:49:55:6c:4a:3f:38:c9:27:78:13:
                    ab:df:3c:5b:15:25:22:46:8e:9f:14:87:9d:d7:78:
                    3d:36:57:f2:26:de:eb:3d:f7:c6:76:c5:68:4e:7a:
                    5b:c5:45:60:95:e0:5f:df:97:0f:8a:87:18:2a:53:
                    78:07
                Exponent: 65537 (0x10001)
        X509v3 extensions:
            X509v3 Authority Key Identifier: 
                keyid:F9:E4:82:64:69:F6:A2:23:B5:BB:5B:0B:E4:75:61:BF:DC:EF:18:6B
                DirName:/CN=etcd-signer@1573108831
                serial:DE:CB:E6:03:9B:D9:82:5B

            X509v3 Basic Constraints: critical
                CA:FALSE
            X509v3 Extended Key Usage: 
                TLS Web Client Authentication
            X509v3 Key Usage: 
                Digital Signature, Key Encipherment
            X509v3 Subject Key Identifier: 
                40:3E:27:5E:AA:66:67:BE:97:26:83:5A:8A:CF:49:E1:AC:F0:34:D6
            X509v3 Subject Alternative Name: 
                IP Address:172.18.165.151, DNS:okd-calico03.sonic.com
    Signature Algorithm: sha256WithRSAEncryption
         a2:2a:a8:9a:28:fe:40:aa:09:94:6e:01:c3:02:fa:84:b2:7c:
         03:e5:e0:9a:d7:ff:77:28:ef:24:7f:b8:63:11:fc:0a:7d:84:
         fe:04:ef:3a:e3:25:a1:d6:20:d1:e0:60:e6:fe:12:5d:28:42:
         ff:50:85:40:c5:a3:48:f5:05:84:76:2e:25:1e:3d:9f:72:e9:
         9c:3b:a9:ab:6d:90:d8:1c:a4:20:b7:ab:f8:9d:2e:d5:30:96:
         9f:32:d0:db:84:11:b4:dd:17:ba:9a:c2:2b:ce:f8:60:75:82:
         90:0d:21:aa:ea:74:d9:09:03:8d:92:6d:ef:6c:0c:61:f9:e4:
         2c:50:a6:82:82:dd:f3:f0:c3:f6:67:f9:7e:fa:27:9b:4e:40:
         b8:a4:34:c1:5e:29:9d:cc:b4:5b:b7:bd:cd:dd:fc:4e:1b:0b:
         c8:f7:27:94:c2:4b:46:2b:8e:cd:66:7c:21:1a:a3:19:ab:8b:
         02:09:e6:3f:ad:d0:f4:f9:fb:56:bc:f3:8a:54:cb:c0:72:81:
         6b:f9:e6:36:63:6e:ff:49:ba:7a:11:5e:4b:de:1d:62:03:de:
         35:4a:5e:5b:77:99:1c:61:98:6e:6f:f0:57:6c:5d:f8:3f:65:
         1d:da:5b:e4:2f:5b:de:42:20:49:30:4a:c4:88:37:64:54:5a:
         d8:fd:a8:82:69:4c:90:16:20:47:c4:b4:cc:9a:45:ab:f5:3c:
         2b:67:a6:71:69:c4:b9:ac:05:c4:0e:20:f2:9a:98:5e:7a:9b:
         1d:49:30:e3:01:27:39:df:3e:85:e4:8d:04:37:4f:92:3c:94:
         7b:ee:b6:67:7b:14:9f:1a:ac:81:51:54:87:b5:82:c2:66:3d:
         a6:f6:17:0c:f0:ad:40:25:27:b8:47:c1:cf:51:9b:08:c7:bd:
         43:6f:29:56:a7:54:d6:e7:44:e7:3f:ba:88:ae:2b:2d:1c:3e:
         c3:77:49:4f:7e:d3:57:bc:40:a9:ef:68:22:45:70:ba:f1:ae:
         b5:1c:31:36:ac:29:63:d7:49:12:26:92:00:36:eb:c0:a0:ee:
         d6:7b:c6:5b:12:46:eb:26:c6:c6:66:07:83:4d:15:68:95:44:
         58:66:7c:44:6c:22:79:6b:1f:96:45:ea:80:e2:61:c3:cb:ca:
         e0:c4:d0:f6:a6:71:82:37:7a:33:73:96:ad:c2:9e:15:11:92:
         61:dd:ca:a0:b5:2d:a6:ec:ea:be:ec:37:dc:5f:a9:ef:b6:f8:
         c2:8c:8f:6b:fe:d2:77:93:b5:4b:98:94:2b:af:ec:c3:85:24:
         d1:9c:ca:07:c2:1d:f4:85:43:77:fd:41:47:23:22:06:1b:7b:
         3a:08:dd:42:0b:3e:bd:25
-----BEGIN CERTIFICATE-----
MIIEjDCCAnSgAwIBAgIBCTANBgkqhkiG9w0BAQsFADAhMR8wHQYDVQQDDBZldGNk
LXNpZ25lckAxNTczMTA4ODMxMB4XDTE5MTEwNzA2NDE0M1oXDTI0MTEwNTA2NDE0
M1owITEfMB0GA1UEAwwWb2tkLWNhbGljbzAzLnNvbmljLmNvbTCCASIwDQYJKoZI
hvcNAQEBBQADggEPADCCAQoCggEBAJ/q9VfPG7wcVUdVHKFUktglc82yadkcPGs7
Aebkek9SuCmRHe7aABCpSTkfGIOHlekcyLXZOOiYMJ2UMuXIGPC+1OFsYDk0aiq/
vthcJp7p4yRZtVFKxXKfM50vGPOrYbJAkNF5tImLVhikhafH4BfsfTFZGWViW8M7
4Cy+a4L1gjUAWPGnyF0mLUywf5cl+NVsrWvrrEdBC6OzrT7PkrJHA11ZuHLVArfu
Ewvo/3s/iU8f9Jccn07rhdgNOrtvRZDL5HMbXUVJVWxKPzjJJ3gTq988WxUlIkaO
nxSHndd4PTZX8ibe6z33xnbFaE56W8VFYJXgX9+XD4qHGCpTeAcCAwEAAaOBzjCB
yzBRBgNVHSMESjBIgBT55IJkafaiI7W7WwvkdWG/3O8Ya6ElpCMwITEfMB0GA1UE
AwwWZXRjZC1zaWduZXJAMTU3MzEwODgzMYIJAN7L5gOb2YJbMAwGA1UdEwEB/wQC
MAAwEwYDVR0lBAwwCgYIKwYBBQUHAwIwCwYDVR0PBAQDAgWgMB0GA1UdDgQWBBRA
PideqmZnvpcmg1qKz0nhrPA01jAnBgNVHREEIDAehwSsEqWXghZva2QtY2FsaWNv
MDMuc29uaWMuY29tMA0GCSqGSIb3DQEBCwUAA4ICAQCiKqiaKP5AqgmUbgHDAvqE
snwD5eCa1/93KO8kf7hjEfwKfYT+BO864yWh1iDR4GDm/hJdKEL/UIVAxaNI9QWE
di4lHj2fcumcO6mrbZDYHKQgt6v4nS7VMJafMtDbhBG03Re6msIrzvhgdYKQDSGq
6nTZCQONkm3vbAxh+eQsUKaCgt3z8MP2Z/l++iebTkC4pDTBXimdzLRbt73N3fxO
GwvI9yeUwktGK47NZnwhGqMZq4sCCeY/rdD0+ftWvPOKVMvAcoFr+eY2Y27/Sbp6
EV5L3h1iA941Sl5bd5kcYZhub/BXbF34P2Ud2lvkL1veQiBJMErEiDdkVFrY/aiC
aUyQFiBHxLTMmkWr9TwrZ6ZxacS5rAXEDiDympheepsdSTDjASc53z6F5I0EN0+S
PJR77rZnexSfGqyBUVSHtYLCZj2m9hcM8K1AJSe4R8HPUZsIx71DbylWp1TW50Tn
P7qIristHD7Dd0lPftNXvECp72giRXC68a61HDE2rClj10kSJpIANuvAoO7We8Zb
EkbrJsbGZgeDTRVolURYZnxEbCJ5ax+WReqA4mHDy8rgxND2pnGCN3ozc5atwp4V
EZJh3cqgtS2m7Oq+7DfcX6nvtvjCjI9r/tJ3k7VLmJQrr+zDhSTRnMoHwh30hUN3
/UFHIyIGG3s6CN1CCz69JQ==
-----END CERTIFICATE-----
